target datalayout = "e-m:e-p270:32:32-p271:32:32-p272:64:64-i64:64-i128:128-f80:128-n8:16:32:64-S128"
target triple = "x86_64-pc-linux-gnu"

%struct._GtkTreeIter = type { i32, ptr, ptr, ptr }

@.str.67 = private unnamed_addr constant [11 x i8] c"darktable|\00", align 1
@.str.68 = private unnamed_addr constant [17 x i8] c"darktable|style|\00", align 1

; Function Attrs: nounwind uwtable
define internal i32 @_select_previous_user_attached_tag(i32 noundef %0, ptr noundef %1) #0 {
  %3 = alloca i32, align 4
  %4 = alloca i32, align 4
  %5 = alloca ptr, align 8
  %6 = alloca %struct._GtkTreeIter, align 8
  %7 = alloca ptr, align 8
  %8 = alloca i32, align 4
  %9 = alloca i32, align 4
  %10 = alloca i32, align 4
  store i32 %0, ptr %4, align 4, !tbaa !31
  store ptr %1, ptr %5, align 8, !tbaa !35
  %11 = load i32, ptr %4, align 4, !tbaa !31
  %12 = icmp eq i32 %11, 0
  br i1 %12, label %13, label %14

13:                                               ; preds = %2
  store i32 0, ptr %3, align 4
  br label %51

14:                                               ; preds = %2
  call void @llvm.lifetime.start.p0(i64 32, ptr %6) #11
  call void @llvm.lifetime.start.p0(i64 8, ptr %7) #11
  %15 = load ptr, ptr %5, align 8, !tbaa !35
  %16 = call ptr @gtk_tree_view_get_model(ptr noundef %15)
  store ptr %16, ptr %7, align 8, !tbaa !36
  call void @llvm.lifetime.start.p0(i64 4, ptr %8) #11
  %17 = load ptr, ptr %7, align 8, !tbaa !36
  %18 = call i32 @gtk_tree_model_get_iter_first(ptr noundef %17, ptr noundef %6)
  store i32 %18, ptr %8, align 4, !tbaa !31
  call void @llvm.lifetime.start.p0(i64 4, ptr %9) #11
  store i32 0, ptr %9, align 4, !tbaa !31
  br label %19

19:                                               ; preds = %32, %14
  %20 = load i32, ptr %8, align 4, !tbaa !31
  %21 = icmp ne i32 %20, 0
  br i1 %21, label %22, label %27

22:                                               ; preds = %19
  %23 = load i32, ptr %9, align 4, !tbaa !31
  %24 = load i32, ptr %4, align 4, !tbaa !31
  %25 = sub nsw i32 %24, 1
  %26 = icmp slt i32 %23, %25
  br label %27

27:                                               ; preds = %22, %19
  %28 = phi i1 [ false, %19 ], [ %26, %22 ]
  br i1 %28, label %29, label %35

29:                                               ; preds = %27
  %30 = load ptr, ptr %7, align 8, !tbaa !36
  %31 = call i32 @gtk_tree_model_iter_next(ptr noundef %30, ptr noundef %6)
  store i32 %31, ptr %8, align 4, !tbaa !31
  br label %32

32:                                               ; preds = %29
  %33 = load i32, ptr %9, align 4, !tbaa !31
  %34 = add nsw i32 %33, 1
  store i32 %34, ptr %9, align 4, !tbaa !31
  br label %19

35:                                               ; preds = %27
  br label %36

36:                                               ; preds = %46, %35
  %37 = load i32, ptr %8, align 4, !tbaa !31
  %38 = icmp ne i32 %37, 0
  br i1 %38, label %39, label %49

39:                                               ; preds = %36
  %40 = load ptr, ptr %7, align 8, !tbaa !36
  %41 = call i32 @_is_user_tag(ptr noundef %40, ptr noundef %6)
  %42 = icmp ne i32 %41, 0
  br i1 %42, label %43, label %45

43:                                               ; preds = %39
  %44 = load ptr, ptr %5, align 8, !tbaa !35
  call void @_show_iter_on_view(ptr noundef %44, ptr noundef %6, i32 noundef 1)
  store i32 1, ptr %3, align 4
  store i32 1, ptr %10, align 4
  br label %50

45:                                               ; preds = %39
  br label %46

46:                                               ; preds = %45
  %47 = load ptr, ptr %7, align 8, !tbaa !36
  %48 = call i32 @gtk_tree_model_iter_previous(ptr noundef %47, ptr noundef %6)
  store i32 %48, ptr %8, align 4, !tbaa !31
  br label %36

49:                                               ; preds = %36
  store i32 0, ptr %3, align 4
  store i32 1, ptr %10, align 4
  br label %50

50:                                               ; preds = %49, %43
  call void @llvm.lifetime.end.p0(i64 4, ptr %9) #11
  call void @llvm.lifetime.end.p0(i64 4, ptr %8) #11
  call void @llvm.lifetime.end.p0(i64 8, ptr %7) #11
  call void @llvm.lifetime.end.p0(i64 32, ptr %6) #11
  br label %51

51:                                               ; preds = %50, %13
  %52 = load i32, ptr %3, align 4
  ret i32 %52
}

; Function Attrs: nounwind uwtable
define internal void @_show_iter_on_view(ptr noundef %0, ptr noundef %1, i32 noundef %2) #0 {
  %4 = alloca ptr, align 8
  %5 = alloca ptr, align 8
  %6 = alloca i32, align 4
  %7 = alloca ptr, align 8
  %8 = alloca ptr, align 8
  %9 = alloca ptr, align 8
  store ptr %0, ptr %4, align 8, !tbaa !35
  store ptr %1, ptr %5, align 8, !tbaa !134
  store i32 %2, ptr %6, align 4, !tbaa !31
  call void @llvm.lifetime.start.p0(i64 8, ptr %7) #11
  %10 = load ptr, ptr %4, align 8, !tbaa !35
  %11 = call ptr @gtk_tree_view_get_model(ptr noundef %10)
  store ptr %11, ptr %7, align 8, !tbaa !36
  call void @llvm.lifetime.start.p0(i64 8, ptr %8) #11
  %12 = load ptr, ptr %7, align 8, !tbaa !36
  %13 = load ptr, ptr %5, align 8, !tbaa !134
  %14 = call ptr @gtk_tree_model_get_path(ptr noundef %12, ptr noundef %13)
  store ptr %14, ptr %8, align 8, !tbaa !138
  %15 = load ptr, ptr %4, align 8, !tbaa !35
  %16 = load ptr, ptr %8, align 8, !tbaa !138
  call void @gtk_tree_view_expand_to_path(ptr noundef %15, ptr noundef %16)
  %17 = load ptr, ptr %4, align 8, !tbaa !35
  %18 = load ptr, ptr %8, align 8, !tbaa !138
  call void @gtk_tree_view_scroll_to_cell(ptr noundef %17, ptr noundef %18, ptr noundef null, i32 noundef 1, float noundef 5.000000e-01, float noundef 5.000000e-01)
  %19 = load ptr, ptr %8, align 8, !tbaa !138
  call void @gtk_tree_path_free(ptr noundef %19)
  %20 = load i32, ptr %6, align 4, !tbaa !31
  %21 = icmp ne i32 %20, 0
  br i1 %21, label %22, label %27

22:                                               ; preds = %3
  call void @llvm.lifetime.start.p0(i64 8, ptr %9) #11
  %23 = load ptr, ptr %4, align 8, !tbaa !35
  %24 = call ptr @gtk_tree_view_get_selection(ptr noundef %23)
  store ptr %24, ptr %9, align 8, !tbaa !59
  %25 = load ptr, ptr %9, align 8, !tbaa !59
  %26 = load ptr, ptr %5, align 8, !tbaa !134
  call void @gtk_tree_selection_select_iter(ptr noundef %25, ptr noundef %26)
  call void @llvm.lifetime.end.p0(i64 8, ptr %9) #11
  br label %27

27:                                               ; preds = %22, %3
  call void @llvm.lifetime.end.p0(i64 8, ptr %8) #11
  call void @llvm.lifetime.end.p0(i64 8, ptr %7) #11
  ret void
}

; Function Attrs: nounwind uwtable
define internal i32 @_is_user_tag(ptr noundef %0, ptr noundef %1) #0 {
  %3 = alloca ptr, align 8
  %4 = alloca ptr, align 8
  %5 = alloca ptr, align 8
  %6 = alloca i32, align 4
  store ptr %0, ptr %3, align 8, !tbaa !36
  store ptr %1, ptr %4, align 8, !tbaa !134
  call void @llvm.lifetime.start.p0(i64 8, ptr %5) #11
  %7 = load ptr, ptr %3, align 8, !tbaa !36
  %8 = load ptr, ptr %4, align 8, !tbaa !134
  call void (ptr, ptr, ...) @gtk_tree_model_get(ptr noundef %7, ptr noundef %8, i32 noundef 2, ptr noundef %5, i32 noundef -1)
  call void @llvm.lifetime.start.p0(i64 4, ptr %6) #11
  %9 = load ptr, ptr %5, align 8, !tbaa !49
  %10 = call i32 @g_str_has_prefix(ptr noundef %9, ptr noundef @.str.67)
  %11 = icmp ne i32 %10, 0
  br i1 %11, label %12, label %16

12:                                               ; preds = %2
  %13 = load ptr, ptr %5, align 8, !tbaa !49
  %14 = call i32 @g_str_has_prefix(ptr noundef %13, ptr noundef @.str.68)
  %15 = icmp ne i32 %14, 0
  br label %16

16:                                               ; preds = %12, %2
  %17 = phi i1 [ true, %2 ], [ %15, %12 ]
  %18 = zext i1 %17 to i32
  store i32 %18, ptr %6, align 4, !tbaa !31
  %19 = load ptr, ptr %5, align 8, !tbaa !49
  call void @g_free(ptr noundef %19)
  %20 = load i32, ptr %6, align 4, !tbaa !31
  call void @llvm.lifetime.end.p0(i64 4, ptr %6) #11
  call void @llvm.lifetime.end.p0(i64 8, ptr %5) #11
  ret i32 %20
}

; Function Attrs: nounwind uwtable
define internal i32 @_select_next_user_attached_tag(i32 noundef %0, ptr noundef %1) #0 {
  %3 = alloca i32, align 4
  %4 = alloca i32, align 4
  %5 = alloca ptr, align 8
  %6 = alloca %struct._GtkTreeIter, align 8
  %7 = alloca ptr, align 8
  %8 = alloca i32, align 4
  %9 = alloca i32, align 4
  %10 = alloca i32, align 4
  store i32 %0, ptr %4, align 4, !tbaa !31
  store ptr %1, ptr %5, align 8, !tbaa !35
  call void @llvm.lifetime.start.p0(i64 32, ptr %6) #11
  call void @llvm.lifetime.start.p0(i64 8, ptr %7) #11
  %11 = load ptr, ptr %5, align 8, !tbaa !35
  %12 = call ptr @gtk_tree_view_get_model(ptr noundef %11)
  store ptr %12, ptr %7, align 8, !tbaa !36
  call void @llvm.lifetime.start.p0(i64 4, ptr %8) #11
  %13 = load ptr, ptr %7, align 8, !tbaa !36
  %14 = call i32 @gtk_tree_model_get_iter_first(ptr noundef %13, ptr noundef %6)
  store i32 %14, ptr %8, align 4, !tbaa !31
  call void @llvm.lifetime.start.p0(i64 4, ptr %9) #11
  store i32 0, ptr %9, align 4, !tbaa !31
  br label %15

15:                                               ; preds = %27, %2
  %16 = load i32, ptr %8, align 4, !tbaa !31
  %17 = icmp ne i32 %16, 0
  br i1 %17, label %18, label %22

18:                                               ; preds = %15
  %19 = load i32, ptr %9, align 4, !tbaa !31
  %20 = load i32, ptr %4, align 4, !tbaa !31
  %21 = icmp slt i32 %19, %20
  br label %22

22:                                               ; preds = %18, %15
  %23 = phi i1 [ false, %15 ], [ %21, %18 ]
  br i1 %23, label %24, label %30

24:                                               ; preds = %22
  %25 = load ptr, ptr %7, align 8, !tbaa !36
  %26 = call i32 @gtk_tree_model_iter_next(ptr noundef %25, ptr noundef %6)
  store i32 %26, ptr %8, align 4, !tbaa !31
  br label %27

27:                                               ; preds = %24
  %28 = load i32, ptr %9, align 4, !tbaa !31
  %29 = add nsw i32 %28, 1
  store i32 %29, ptr %9, align 4, !tbaa !31
  br label %15

30:                                               ; preds = %22
  br label %31

31:                                               ; preds = %41, %30
  %32 = load i32, ptr %8, align 4, !tbaa !31
  %33 = icmp ne i32 %32, 0
  br i1 %33, label %34, label %44

34:                                               ; preds = %31
  %35 = load ptr, ptr %7, align 8, !tbaa !36
  %36 = call i32 @_is_user_tag(ptr noundef %35, ptr noundef %6)
  %37 = icmp ne i32 %36, 0
  br i1 %37, label %38, label %40

38:                                               ; preds = %34
  %39 = load ptr, ptr %5, align 8, !tbaa !35
  call void @_show_iter_on_view(ptr noundef %39, ptr noundef %6, i32 noundef 1)
  store i32 1, ptr %3, align 4
  store i32 1, ptr %10, align 4
  br label %52

40:                                               ; preds = %34
  br label %41

41:                                               ; preds = %40
  %42 = load ptr, ptr %7, align 8, !tbaa !36
  %43 = call i32 @gtk_tree_model_iter_next(ptr noundef %42, ptr noundef %6)
  store i32 %43, ptr %8, align 4, !tbaa !31
  br label %31

44:                                               ; preds = %31
  %45 = load i32, ptr %4, align 4, !tbaa !31
  %46 = icmp ne i32 %45, 0
  br i1 %46, label %47, label %51

47:                                               ; preds = %44
  %48 = load i32, ptr %4, align 4, !tbaa !31
  %49 = load ptr, ptr %5, align 8, !tbaa !35
  %50 = call i32 @_select_previous_user_attached_tag(i32 noundef %48, ptr noundef %49)
  store i32 %50, ptr %3, align 4
  store i32 1, ptr %10, align 4
  br label %52

51:                                               ; preds = %44
  store i32 0, ptr %3, align 4
  store i32 1, ptr %10, align 4
  br label %52

52:                                               ; preds = %51, %47, %38
  call void @llvm.lifetime.end.p0(i64 4, ptr %9) #11
  call void @llvm.lifetime.end.p0(i64 4, ptr %8) #11
  call void @llvm.lifetime.end.p0(i64 8, ptr %7) #11
  call void @llvm.lifetime.end.p0(i64 32, ptr %6) #11
  %53 = load i32, ptr %3, align 4
  ret i32 %53
}