; Function Attrs: nounwind uwtable
define internal fastcc range(i32 0, 2) i32 @_select_next_user_attached_tag(i32 noundef %0, ptr noundef %1) unnamed_addr #1 {
  %3 = alloca ptr, align 8
  %4 = alloca %struct._GtkTreeIter, align 8
  %5 = alloca ptr, align 8
  %6 = alloca %struct._GtkTreeIter, align 8
  call void @llvm.lifetime.start.p0(i64 32, ptr nonnull %6) #16
  %7 = tail call ptr @gtk_tree_view_get_model(ptr noundef %1) #16
  %8 = call i32 @gtk_tree_model_get_iter_first(ptr noundef %7, ptr noundef nonnull %6) #16
  %9 = icmp ne i32 %8, 0
  %10 = icmp sgt i32 %0, 0
  %11 = and i1 %9, %10
  br i1 %11, label %.lr.ph, label %.preheader

.preheader:                                       ; preds = %.lr.ph, %2
  %.014.lcssa = phi i32 [ %8, %2 ], [ %12, %.lr.ph ]
  %.not26 = icmp eq i32 %.014.lcssa, 0
  br i1 %.not26, label %._crit_edge, label %.lr.ph27

.lr.ph:                                           ; preds = %2, %.lr.ph
  %.025 = phi i32 [ %13, %.lr.ph ], [ 0, %2 ]
  %12 = call i32 @gtk_tree_model_iter_next(ptr noundef %7, ptr noundef nonnull %6) #16
  %13 = add nuw nsw i32 %.025, 1
  %14 = icmp ne i32 %12, 0
  %15 = icmp slt i32 %13, %0
  %16 = select i1 %14, i1 %15, i1 false
  br i1 %16, label %.lr.ph, label %.preheader

.lr.ph27:                                         ; preds = %.preheader, %25
  call void @llvm.lifetime.start.p0(i64 8, ptr nonnull %5) #16
  call void (ptr, ptr, ...) @gtk_tree_model_get(ptr noundef %7, ptr noundef nonnull %6, i32 noundef 2, ptr noundef nonnull %5, i32 noundef -1) #16
  %17 = load ptr, ptr %5, align 8, !tbaa !31
  %18 = call i32 @g_str_has_prefix(ptr noundef %17, ptr noundef nonnull @.str.67) #16
  %.not.i = icmp eq i32 %18, 0
  %19 = load ptr, ptr %5, align 8, !tbaa !31
  br i1 %.not.i, label %_is_user_tag.exit.thread, label %_is_user_tag.exit

_is_user_tag.exit.thread:                         ; preds = %.lr.ph27
  call void @g_free(ptr noundef %19) #16
  call void @llvm.lifetime.end.p0(i64 8, ptr nonnull %5) #16
  br label %.loopexit

_is_user_tag.exit:                                ; preds = %.lr.ph27
  %20 = call i32 @g_str_has_prefix(ptr noundef %19, ptr noundef nonnull @.str.68) #16
  %.not21 = icmp eq i32 %20, 0
  %21 = load ptr, ptr %5, align 8, !tbaa !31
  call void @g_free(ptr noundef %21) #16
  call void @llvm.lifetime.end.p0(i64 8, ptr nonnull %5) #16
  br i1 %.not21, label %25, label %.loopexit

.loopexit:                                        ; preds = %_is_user_tag.exit, %_is_user_tag.exit.thread
  %22 = call ptr @gtk_tree_view_get_model(ptr noundef %1) #16
  %23 = call ptr @gtk_tree_model_get_path(ptr noundef %22, ptr noundef nonnull %6) #16
  call void @gtk_tree_view_expand_to_path(ptr noundef %1, ptr noundef %23) #16
  call void @gtk_tree_view_scroll_to_cell(ptr noundef %1, ptr noundef %23, ptr noundef null, i32 noundef 1, float noundef 5.000000e-01, float noundef 5.000000e-01) #16
  call void @gtk_tree_path_free(ptr noundef %23) #16
  %24 = call ptr @gtk_tree_view_get_selection(ptr noundef %1) #16
  call void @gtk_tree_selection_select_iter(ptr noundef %24, ptr noundef nonnull %6) #16
  br label %49

25:                                               ; preds = %_is_user_tag.exit
  %26 = call i32 @gtk_tree_model_iter_next(ptr noundef %7, ptr noundef nonnull %6) #16
  %.not = icmp eq i32 %26, 0
  br i1 %.not, label %._crit_edge, label %.lr.ph27

._crit_edge:                                      ; preds = %25, %.preheader
  %.not17 = icmp eq i32 %0, 0
  br i1 %.not17, label %49, label %27

27:                                               ; preds = %._crit_edge
  call void @llvm.lifetime.start.p0(i64 32, ptr nonnull %4) #16
  %28 = call ptr @gtk_tree_view_get_model(ptr noundef %1) #16
  %29 = call i32 @gtk_tree_model_get_iter_first(ptr noundef %28, ptr noundef nonnull %4) #16
  %30 = add nsw i32 %0, -1
  %31 = icmp ne i32 %29, 0
  %32 = icmp sgt i32 %0, 1
  %33 = and i1 %32, %31
  br i1 %33, label %.lr.ph.i, label %.preheader.i

.preheader.i:                                     ; preds = %.lr.ph.i, %27
  %.012.lcssa.i = phi i32 [ %29, %27 ], [ %34, %.lr.ph.i ]
  %.not21.i = icmp eq i32 %.012.lcssa.i, 0
  br i1 %.not21.i, label %_select_previous_user_attached_tag.exit, label %.lr.ph22.i

.lr.ph.i:                                         ; preds = %27, %.lr.ph.i
  %.020.i = phi i32 [ %35, %.lr.ph.i ], [ 0, %27 ]
  %34 = call i32 @gtk_tree_model_iter_next(ptr noundef %28, ptr noundef nonnull %4) #16
  %35 = add nuw nsw i32 %.020.i, 1
  %36 = icmp ne i32 %34, 0
  %37 = icmp slt i32 %35, %30
  %38 = select i1 %36, i1 %37, i1 false
  br i1 %38, label %.lr.ph.i, label %.preheader.i

.lr.ph22.i:                                       ; preds = %.preheader.i, %47
  call void @llvm.lifetime.start.p0(i64 8, ptr nonnull %3) #16
  call void (ptr, ptr, ...) @gtk_tree_model_get(ptr noundef %28, ptr noundef nonnull %4, i32 noundef 2, ptr noundef nonnull %3, i32 noundef -1) #16
  %39 = load ptr, ptr %3, align 8, !tbaa !31
  %40 = call i32 @g_str_has_prefix(ptr noundef %39, ptr noundef nonnull @.str.67) #16
  %.not.i.i = icmp eq i32 %40, 0
  %41 = load ptr, ptr %3, align 8, !tbaa !31
  br i1 %.not.i.i, label %_is_user_tag.exit.thread.i, label %_is_user_tag.exit.i

_is_user_tag.exit.thread.i:                       ; preds = %.lr.ph22.i
  call void @g_free(ptr noundef %41) #16
  call void @llvm.lifetime.end.p0(i64 8, ptr nonnull %3) #16
  br label %.loopexit19.i

_is_user_tag.exit.i:                              ; preds = %.lr.ph22.i
  %42 = call i32 @g_str_has_prefix(ptr noundef %41, ptr noundef nonnull @.str.68) #16
  %.not18.i = icmp eq i32 %42, 0
  %43 = load ptr, ptr %3, align 8, !tbaa !31
  call void @g_free(ptr noundef %43) #16
  call void @llvm.lifetime.end.p0(i64 8, ptr nonnull %3) #16
  br i1 %.not18.i, label %47, label %.loopexit19.i

.loopexit19.i:                                    ; preds = %_is_user_tag.exit.i, %_is_user_tag.exit.thread.i
  %44 = call ptr @gtk_tree_view_get_model(ptr noundef %1) #16
  %45 = call ptr @gtk_tree_model_get_path(ptr noundef %44, ptr noundef nonnull %4) #16
  call void @gtk_tree_view_expand_to_path(ptr noundef %1, ptr noundef %45) #16
  call void @gtk_tree_view_scroll_to_cell(ptr noundef %1, ptr noundef %45, ptr noundef null, i32 noundef 1, float noundef 5.000000e-01, float noundef 5.000000e-01) #16
  call void @gtk_tree_path_free(ptr noundef %45) #16
  %46 = call ptr @gtk_tree_view_get_selection(ptr noundef %1) #16
  call void @gtk_tree_selection_select_iter(ptr noundef %46, ptr noundef nonnull %4) #16
  br label %_select_previous_user_attached_tag.exit

47:                                               ; preds = %_is_user_tag.exit.i
  %48 = call i32 @gtk_tree_model_iter_previous(ptr noundef %28, ptr noundef nonnull %4) #16
  %.not.i19 = icmp eq i32 %48, 0
  br i1 %.not.i19, label %_select_previous_user_attached_tag.exit, label %.lr.ph22.i

_select_previous_user_attached_tag.exit:          ; preds = %47, %.preheader.i, %.loopexit19.i
  %.114.i = phi i32 [ 1, %.loopexit19.i ], [ 0, %.preheader.i ], [ 0, %47 ]
  call void @llvm.lifetime.end.p0(i64 32, ptr nonnull %4) #16
  br label %49

49:                                               ; preds = %._crit_edge, %_select_previous_user_attached_tag.exit, %.loopexit
  %.015 = phi i32 [ 1, %.loopexit ], [ %.114.i, %_select_previous_user_attached_tag.exit ], [ 0, %._crit_edge ]
  call void @llvm.lifetime.end.p0(i64 32, ptr nonnull %6) #16
  ret i32 %.015
}